; ModuleID = '35/1112.c'
source_filename = "35/1112.c"
target datalayout = "e-m:e-p270:32:32-p271:32:32-p272:64:64-i64:64-f80:128-n8:16:32:64-S128"
target triple = "x86_64-pc-linux-gnu"

@.str = private unnamed_addr constant [6 x i8] c"%d,%d\00", align 1
@.str.1 = private unnamed_addr constant [3 x i8] c"%d\00", align 1
@.str.2 = private unnamed_addr constant [7 x i8] c"%d+%d\0A\00", align 1
@.str.3 = private unnamed_addr constant [3 x i8] c"No\00", align 1

; Function Attrs: noinline nounwind uwtable
define dso_local i32 @main() #0 {
  %1 = alloca i32, align 4
  %2 = alloca [8 x [8 x i32]], align 16
  %3 = alloca [8 x i32], align 16
  %4 = alloca [8 x i32], align 16
  %5 = alloca i32, align 4
  %6 = alloca i32, align 4
  %7 = alloca i32, align 4
  %8 = alloca i32, align 4
  %9 = alloca i32, align 4
  %10 = alloca i32, align 4
  %11 = alloca i32, align 4
  store i32 0, i32* %1, align 4
  store i32 1, i32* %5, align 4
  %12 = call i32 (i8*, ...) @__isoc99_scanf(i8* getelementptr inbounds ([6 x i8], [6 x i8]* @.str, i64 0, i64 0), i32* %6, i32* %7)
  store i32 0, i32* %8, align 4
  br label %13

13:                                               ; preds = %34, %0
  %14 = load i32, i32* %8, align 4
  %15 = load i32, i32* %6, align 4
  %16 = icmp slt i32 %14, %15
  br i1 %16, label %17, label %37

17:                                               ; preds = %13
  store i32 0, i32* %9, align 4
  br label %18

18:                                               ; preds = %30, %17
  %19 = load i32, i32* %9, align 4
  %20 = load i32, i32* %7, align 4
  %21 = icmp slt i32 %19, %20
  br i1 %21, label %22, label %33

22:                                               ; preds = %18
  %23 = load i32, i32* %8, align 4
  %24 = sext i32 %23 to i64
  %25 = getelementptr inbounds [8 x [8 x i32]], [8 x [8 x i32]]* %2, i64 0, i64 %24
  %26 = load i32, i32* %9, align 4
  %27 = sext i32 %26 to i64
  %28 = getelementptr inbounds [8 x i32], [8 x i32]* %25, i64 0, i64 %27
  %29 = call i32 (i8*, ...) @__isoc99_scanf(i8* getelementptr inbounds ([3 x i8], [3 x i8]* @.str.1, i64 0, i64 0), i32* %28)
  br label %30

30:                                               ; preds = %22
  %31 = load i32, i32* %9, align 4
  %32 = add nsw i32 %31, 1
  store i32 %32, i32* %9, align 4
  br label %18

33:                                               ; preds = %18
  br label %34

34:                                               ; preds = %33
  %35 = load i32, i32* %8, align 4
  %36 = add nsw i32 %35, 1
  store i32 %36, i32* %8, align 4
  br label %13

37:                                               ; preds = %13
  store i32 0, i32* %10, align 4
  br label %38

38:                                               ; preds = %49, %37
  %39 = load i32, i32* %10, align 4
  %40 = load i32, i32* %6, align 4
  %41 = icmp slt i32 %39, %40
  br i1 %41, label %42, label %52

42:                                               ; preds = %38
  %43 = load i32, i32* %10, align 4
  %44 = sext i32 %43 to i64
  %45 = getelementptr inbounds [8 x i32], [8 x i32]* %3, i64 0, i64 %44
  store i32 0, i32* %45, align 4
  %46 = load i32, i32* %10, align 4
  %47 = sext i32 %46 to i64
  %48 = getelementptr inbounds [8 x i32], [8 x i32]* %4, i64 0, i64 %47
  store i32 0, i32* %48, align 4
  br label %49

49:                                               ; preds = %42
  %50 = load i32, i32* %10, align 4
  %51 = add nsw i32 %50, 1
  store i32 %51, i32* %10, align 4
  br label %38

52:                                               ; preds = %38
  store i32 0, i32* %8, align 4
  br label %53

53:                                               ; preds = %94, %52
  %54 = load i32, i32* %8, align 4
  %55 = load i32, i32* %6, align 4
  %56 = icmp slt i32 %54, %55
  br i1 %56, label %57, label %97

57:                                               ; preds = %53
  store i32 0, i32* %9, align 4
  br label %58

58:                                               ; preds = %90, %57
  %59 = load i32, i32* %9, align 4
  %60 = load i32, i32* %7, align 4
  %61 = sub nsw i32 %60, 1
  %62 = icmp slt i32 %59, %61
  br i1 %62, label %63, label %93

63:                                               ; preds = %58
  %64 = load i32, i32* %8, align 4
  %65 = sext i32 %64 to i64
  %66 = getelementptr inbounds [8 x [8 x i32]], [8 x [8 x i32]]* %2, i64 0, i64 %65
  %67 = load i32, i32* %8, align 4
  %68 = sext i32 %67 to i64
  %69 = getelementptr inbounds [8 x i32], [8 x i32]* %3, i64 0, i64 %68
  %70 = load i32, i32* %69, align 4
  %71 = sext i32 %70 to i64
  %72 = getelementptr inbounds [8 x i32], [8 x i32]* %66, i64 0, i64 %71
  %73 = load i32, i32* %72, align 4
  %74 = load i32, i32* %8, align 4
  %75 = sext i32 %74 to i64
  %76 = getelementptr inbounds [8 x [8 x i32]], [8 x [8 x i32]]* %2, i64 0, i64 %75
  %77 = load i32, i32* %9, align 4
  %78 = add nsw i32 %77, 1
  %79 = sext i32 %78 to i64
  %80 = getelementptr inbounds [8 x i32], [8 x i32]* %76, i64 0, i64 %79
  %81 = load i32, i32* %80, align 4
  %82 = icmp slt i32 %73, %81
  br i1 %82, label %83, label %89

83:                                               ; preds = %63
  %84 = load i32, i32* %9, align 4
  %85 = add nsw i32 %84, 1
  %86 = load i32, i32* %8, align 4
  %87 = sext i32 %86 to i64
  %88 = getelementptr inbounds [8 x i32], [8 x i32]* %3, i64 0, i64 %87
  store i32 %85, i32* %88, align 4
  br label %89

89:                                               ; preds = %83, %63
  br label %90

90:                                               ; preds = %89
  %91 = load i32, i32* %9, align 4
  %92 = add nsw i32 %91, 1
  store i32 %92, i32* %9, align 4
  br label %58

93:                                               ; preds = %58
  br label %94

94:                                               ; preds = %93
  %95 = load i32, i32* %8, align 4
  %96 = add nsw i32 %95, 1
  store i32 %96, i32* %8, align 4
  br label %53

97:                                               ; preds = %53
  store i32 0, i32* %9, align 4
  br label %98

98:                                               ; preds = %139, %97
  %99 = load i32, i32* %9, align 4
  %100 = load i32, i32* %7, align 4
  %101 = icmp slt i32 %99, %100
  br i1 %101, label %102, label %142

102:                                              ; preds = %98
  store i32 0, i32* %8, align 4
  br label %103

103:                                              ; preds = %135, %102
  %104 = load i32, i32* %8, align 4
  %105 = load i32, i32* %6, align 4
  %106 = sub nsw i32 %105, 1
  %107 = icmp slt i32 %104, %106
  br i1 %107, label %108, label %138

108:                                              ; preds = %103
  %109 = load i32, i32* %9, align 4
  %110 = sext i32 %109 to i64
  %111 = getelementptr inbounds [8 x i32], [8 x i32]* %4, i64 0, i64 %110
  %112 = load i32, i32* %111, align 4
  %113 = sext i32 %112 to i64
  %114 = getelementptr inbounds [8 x [8 x i32]], [8 x [8 x i32]]* %2, i64 0, i64 %113
  %115 = load i32, i32* %9, align 4
  %116 = sext i32 %115 to i64
  %117 = getelementptr inbounds [8 x i32], [8 x i32]* %114, i64 0, i64 %116
  %118 = load i32, i32* %117, align 4
  %119 = load i32, i32* %8, align 4
  %120 = add nsw i32 %119, 1
  %121 = sext i32 %120 to i64
  %122 = getelementptr inbounds [8 x [8 x i32]], [8 x [8 x i32]]* %2, i64 0, i64 %121
  %123 = load i32, i32* %9, align 4
  %124 = sext i32 %123 to i64
  %125 = getelementptr inbounds [8 x i32], [8 x i32]* %122, i64 0, i64 %124
  %126 = load i32, i32* %125, align 4
  %127 = icmp sgt i32 %118, %126
  br i1 %127, label %128, label %134

128:                                              ; preds = %108
  %129 = load i32, i32* %8, align 4
  %130 = add nsw i32 %129, 1
  %131 = load i32, i32* %9, align 4
  %132 = sext i32 %131 to i64
  %133 = getelementptr inbounds [8 x i32], [8 x i32]* %4, i64 0, i64 %132
  store i32 %130, i32* %133, align 4
  br label %134

134:                                              ; preds = %128, %108
  br label %135

135:                                              ; preds = %134
  %136 = load i32, i32* %8, align 4
  %137 = add nsw i32 %136, 1
  store i32 %137, i32* %8, align 4
  br label %103

138:                                              ; preds = %103
  br label %139

139:                                              ; preds = %138
  %140 = load i32, i32* %9, align 4
  %141 = add nsw i32 %140, 1
  store i32 %141, i32* %9, align 4
  br label %98

142:                                              ; preds = %98
  store i32 0, i32* %8, align 4
  br label %143

143:                                              ; preds = %165, %142
  %144 = load i32, i32* %8, align 4
  %145 = load i32, i32* %6, align 4
  %146 = icmp slt i32 %144, %145
  br i1 %146, label %147, label %168

147:                                              ; preds = %143
  %148 = load i32, i32* %8, align 4
  %149 = sext i32 %148 to i64
  %150 = getelementptr inbounds [8 x i32], [8 x i32]* %3, i64 0, i64 %149
  %151 = load i32, i32* %150, align 4
  %152 = sext i32 %151 to i64
  %153 = getelementptr inbounds [8 x i32], [8 x i32]* %4, i64 0, i64 %152
  %154 = load i32, i32* %153, align 4
  %155 = load i32, i32* %8, align 4
  %156 = icmp eq i32 %154, %155
  br i1 %156, label %157, label %164

157:                                              ; preds = %147
  %158 = load i32, i32* %8, align 4
  %159 = load i32, i32* %8, align 4
  %160 = sext i32 %159 to i64
  %161 = getelementptr inbounds [8 x i32], [8 x i32]* %3, i64 0, i64 %160
  %162 = load i32, i32* %161, align 4
  %163 = call i32 (i8*, ...) @printf(i8* getelementptr inbounds ([7 x i8], [7 x i8]* @.str.2, i64 0, i64 0), i32 %158, i32 %162)
  store i32 0, i32* %5, align 4
  br label %164

164:                                              ; preds = %157, %147
  br label %165

165:                                              ; preds = %164
  %166 = load i32, i32* %8, align 4
  %167 = add nsw i32 %166, 1
  store i32 %167, i32* %8, align 4
  br label %143

168:                                              ; preds = %143
  %169 = load i32, i32* %5, align 4
  %170 = icmp eq i32 %169, 1
  br i1 %170, label %171, label %173

171:                                              ; preds = %168
  %172 = call i32 (i8*, ...) @printf(i8* getelementptr inbounds ([3 x i8], [3 x i8]* @.str.3, i64 0, i64 0))
  br label %173

173:                                              ; preds = %171, %168
  %174 = call i32 (i8*, ...) @__isoc99_scanf(i8* getelementptr inbounds ([3 x i8], [3 x i8]* @.str.1, i64 0, i64 0), i32* %11)
  ret i32 0
}

declare dso_local i32 @__isoc99_scanf(i8*, ...) #1

declare dso_local i32 @printf(i8*, ...) #1


!llvm.module.flags = !{!0}
!llvm.ident = !{!1}

!0 = !{i32 1, !"wchar_size", i32 4}
!1 = !{!"clang version 10.0.0-4ubuntu1 "}
